target datalayout = "e-m:e-p270:32:32-p271:32:32-p272:64:64-i64:64-i128:128-f80:128-n8:16:32:64-S128"
target triple = "x86_64-pc-linux-gnu"

%struct.GtkRequisition = type { i32, i32 }
%struct._GtkWidget = type { %struct.GtkObject, i16, i8, i8, ptr, ptr, %struct.GtkRequisition, %struct.GtkAllocation, ptr, ptr }
%struct.GtkObject = type { %struct.GObject, i32 }
%struct.GObject = type { %struct.GTypeInstance, i32, ptr }
%struct.GTypeInstance = type { ptr }
%struct.GtkAllocation = type { i32, i32, i32, i32 }

@fp_gtk_paint_expander = internal global ptr null, align 8
@gtk2_white_pixmap = internal global ptr null, align 8
@gtk2_black_pixmap = internal global ptr null, align 8
@gtk2_widget = internal global ptr null, align 8

; Function Attrs: nounwind uwtable
define internal void @gtk2_paint_expander(i32 noundef %0, i32 noundef %1, ptr noundef %2, i32 noundef %3, i32 noundef %4, i32 noundef %5, i32 noundef %6, i32 noundef %7) #0 {
  %9 = alloca i32, align 4
  %10 = alloca i32, align 4
  %11 = alloca ptr, align 8
  %12 = alloca i32, align 4
  %13 = alloca i32, align 4
  %14 = alloca i32, align 4
  %15 = alloca i32, align 4
  %16 = alloca i32, align 4
  store i32 %0, ptr %9, align 4
  store i32 %1, ptr %10, align 4
  store ptr %2, ptr %11, align 8
  store i32 %3, ptr %12, align 4
  store i32 %4, ptr %13, align 4
  store i32 %5, ptr %14, align 4
  store i32 %6, ptr %15, align 4
  store i32 %7, ptr %16, align 4
  %17 = load i32, ptr %9, align 4
  %18 = call ptr @gtk2_get_widget(i32 noundef %17)
  store ptr %18, ptr @gtk2_widget, align 8
  %19 = load ptr, ptr @fp_gtk_paint_expander, align 8
  %20 = load ptr, ptr @gtk2_widget, align 8
  %21 = getelementptr inbounds %struct._GtkWidget, ptr %20, i32 0, i32 5
  %22 = load ptr, ptr %21, align 8
  %23 = load ptr, ptr @gtk2_white_pixmap, align 8
  %24 = load i32, ptr %10, align 4
  %25 = load ptr, ptr @gtk2_widget, align 8
  %26 = load ptr, ptr %11, align 8
  %27 = load i32, ptr %12, align 4
  %28 = load i32, ptr %14, align 4
  %29 = sdiv i32 %28, 2
  %30 = add nsw i32 %27, %29
  %31 = load i32, ptr %13, align 4
  %32 = load i32, ptr %15, align 4
  %33 = sdiv i32 %32, 2
  %34 = add nsw i32 %31, %33
  %35 = load i32, ptr %16, align 4
  call void %19(ptr noundef %22, ptr noundef %23, i32 noundef %24, ptr noundef null, ptr noundef %25, ptr noundef %26, i32 noundef %30, i32 noundef %34, i32 noundef %35)
  %36 = load ptr, ptr @fp_gtk_paint_expander, align 8
  %37 = load ptr, ptr @gtk2_widget, align 8
  %38 = getelementptr inbounds %struct._GtkWidget, ptr %37, i32 0, i32 5
  %39 = load ptr, ptr %38, align 8
  %40 = load ptr, ptr @gtk2_black_pixmap, align 8
  %41 = load i32, ptr %10, align 4
  %42 = load ptr, ptr @gtk2_widget, align 8
  %43 = load ptr, ptr %11, align 8
  %44 = load i32, ptr %12, align 4
  %45 = load i32, ptr %14, align 4
  %46 = sdiv i32 %45, 2
  %47 = add nsw i32 %44, %46
  %48 = load i32, ptr %13, align 4
  %49 = load i32, ptr %15, align 4
  %50 = sdiv i32 %49, 2
  %51 = add nsw i32 %48, %50
  %52 = load i32, ptr %16, align 4
  call void %36(ptr noundef %39, ptr noundef %40, i32 noundef %41, ptr noundef null, ptr noundef %42, ptr noundef %43, i32 noundef %47, i32 noundef %51, i32 noundef %52)
  ret void
}