; Function Attrs: nounwind uwtable
define internal void @gtk2_paint_expander(i32 noundef %0, i32 noundef %1, ptr noundef %2, i32 noundef %3, i32 noundef %4, i32 noundef %5, i32 noundef %6, i32 noundef %7) #0 {
  %9 = tail call fastcc ptr @gtk2_get_widget(i32 noundef %0)
  store ptr %9, ptr @gtk2_widget, align 8
  %10 = load ptr, ptr @fp_gtk_paint_expander, align 8
  %11 = getelementptr inbounds i8, ptr %9, i64 48
  %12 = load ptr, ptr %11, align 8
  %13 = load ptr, ptr @gtk2_white_pixmap, align 8
  %14 = sdiv i32 %5, 2
  %15 = add nsw i32 %14, %3
  %16 = sdiv i32 %6, 2
  %17 = add nsw i32 %16, %4
  tail call void %10(ptr noundef %12, ptr noundef %13, i32 noundef %1, ptr noundef null, ptr noundef %9, ptr noundef %2, i32 noundef %15, i32 noundef %17, i32 noundef %7) #18
  %18 = load ptr, ptr @fp_gtk_paint_expander, align 8
  %19 = load ptr, ptr @gtk2_widget, align 8
  %20 = getelementptr inbounds i8, ptr %19, i64 48
  %21 = load ptr, ptr %20, align 8
  %22 = load ptr, ptr @gtk2_black_pixmap, align 8
  tail call void %18(ptr noundef %21, ptr noundef %22, i32 noundef %1, ptr noundef null, ptr noundef %19, ptr noundef %2, i32 noundef %15, i32 noundef %17, i32 noundef %7) #18
  ret void
}